target datalayout = "e-m:e-p270:32:32-p271:32:32-p272:64:64-i64:64-i128:128-f80:128-n8:16:32:64-S128"
target triple = "x86_64-pc-linux-gnu"

%struct.CodedBitstreamFragment = type { ptr, i64, i64, ptr, i32, i32, ptr }
%struct.AVCodecParameters = type { i32, i32, i32, ptr, i32, ptr, i32, i32, i64, i32, i32, i32, i32, i32, i32, %struct.AVRational, %struct.AVRational, i32, i32, i32, i32, i32, i32, i32, %struct.AVChannelLayout, i32, i32, i32, i32, i32, i32 }
%struct.AVRational = type { i32, i32 }
%struct.AVChannelLayout = type { i32, i32, %union.anon, ptr }
%union.anon = type { i64 }

; Function Attrs: nounwind uwtable
define i32 @ff_cbs_write_extradata(ptr noundef %0, ptr noundef %1, ptr noundef %2) #3 {
  %4 = alloca i32, align 4
  %5 = alloca ptr, align 8
  %6 = alloca ptr, align 8
  %7 = alloca ptr, align 8
  %8 = alloca i32, align 4
  %9 = alloca i32, align 4
  store ptr %0, ptr %5, align 8, !tbaa !22
  store ptr %1, ptr %6, align 8, !tbaa !57
  store ptr %2, ptr %7, align 8, !tbaa !39
  call void @llvm.lifetime.start.p0(i64 4, ptr %8) #13
  %10 = load ptr, ptr %5, align 8, !tbaa !22
  %11 = load ptr, ptr %7, align 8, !tbaa !39
  %12 = call i32 @ff_cbs_write_fragment_data(ptr noundef %10, ptr noundef %11)
  store i32 %12, ptr %8, align 4, !tbaa !10
  %13 = load i32, ptr %8, align 4, !tbaa !10
  %14 = icmp slt i32 %13, 0
  br i1 %14, label %15, label %17

15:                                               ; preds = %3
  %16 = load i32, ptr %8, align 4, !tbaa !10
  store i32 %16, ptr %4, align 4
  store i32 1, ptr %9, align 4
  br label %63

17:                                               ; preds = %3
  %18 = load ptr, ptr %6, align 8, !tbaa !57
  %19 = getelementptr inbounds nuw %struct.AVCodecParameters, ptr %18, i32 0, i32 3
  call void @av_freep(ptr noundef %19)
  %20 = load ptr, ptr %6, align 8, !tbaa !57
  %21 = getelementptr inbounds nuw %struct.AVCodecParameters, ptr %20, i32 0, i32 4
  store i32 0, ptr %21, align 8, !tbaa !64
  %22 = load ptr, ptr %7, align 8, !tbaa !39
  %23 = getelementptr inbounds nuw %struct.CodedBitstreamFragment, ptr %22, i32 0, i32 1
  %24 = load i64, ptr %23, align 8, !tbaa !48
  %25 = icmp ne i64 %24, 0
  br i1 %25, label %27, label %26

26:                                               ; preds = %17
  store i32 0, ptr %4, align 4
  store i32 1, ptr %9, align 4
  br label %63

27:                                               ; preds = %17
  %28 = load ptr, ptr %7, align 8, !tbaa !39
  %29 = getelementptr inbounds nuw %struct.CodedBitstreamFragment, ptr %28, i32 0, i32 1
  %30 = load i64, ptr %29, align 8, !tbaa !48
  %31 = add i64 %30, 64
  %32 = call noalias ptr @av_malloc(i64 noundef %31)
  %33 = load ptr, ptr %6, align 8, !tbaa !57
  %34 = getelementptr inbounds nuw %struct.AVCodecParameters, ptr %33, i32 0, i32 3
  store ptr %32, ptr %34, align 8, !tbaa !59
  %35 = load ptr, ptr %6, align 8, !tbaa !57
  %36 = getelementptr inbounds nuw %struct.AVCodecParameters, ptr %35, i32 0, i32 3
  %37 = load ptr, ptr %36, align 8, !tbaa !59
  %38 = icmp ne ptr %37, null
  br i1 %38, label %40, label %39

39:                                               ; preds = %27
  store i32 -12, ptr %4, align 4
  store i32 1, ptr %9, align 4
  br label %63

40:                                               ; preds = %27
  %41 = load ptr, ptr %6, align 8, !tbaa !57
  %42 = getelementptr inbounds nuw %struct.AVCodecParameters, ptr %41, i32 0, i32 3
  %43 = load ptr, ptr %42, align 8, !tbaa !59
  %44 = load ptr, ptr %7, align 8, !tbaa !39
  %45 = getelementptr inbounds nuw %struct.CodedBitstreamFragment, ptr %44, i32 0, i32 0
  %46 = load ptr, ptr %45, align 8, !tbaa !47
  %47 = load ptr, ptr %7, align 8, !tbaa !39
  %48 = getelementptr inbounds nuw %struct.CodedBitstreamFragment, ptr %47, i32 0, i32 1
  %49 = load i64, ptr %48, align 8, !tbaa !48
  call void @llvm.memcpy.p0.p0.i64(ptr align 1 %43, ptr align 1 %46, i64 %49, i1 false)
  %50 = load ptr, ptr %6, align 8, !tbaa !57
  %51 = getelementptr inbounds nuw %struct.AVCodecParameters, ptr %50, i32 0, i32 3
  %52 = load ptr, ptr %51, align 8, !tbaa !59
  %53 = load ptr, ptr %7, align 8, !tbaa !39
  %54 = getelementptr inbounds nuw %struct.CodedBitstreamFragment, ptr %53, i32 0, i32 1
  %55 = load i64, ptr %54, align 8, !tbaa !48
  %56 = getelementptr inbounds nuw i8, ptr %52, i64 %55
  call void @llvm.memset.p0.i64(ptr align 1 %56, i8 0, i64 64, i1 false)
  %57 = load ptr, ptr %7, align 8, !tbaa !39
  %58 = getelementptr inbounds nuw %struct.CodedBitstreamFragment, ptr %57, i32 0, i32 1
  %59 = load i64, ptr %58, align 8, !tbaa !48
  %60 = trunc i64 %59 to i32
  %61 = load ptr, ptr %6, align 8, !tbaa !57
  %62 = getelementptr inbounds nuw %struct.AVCodecParameters, ptr %61, i32 0, i32 4
  store i32 %60, ptr %62, align 8, !tbaa !64
  store i32 0, ptr %4, align 4
  store i32 1, ptr %9, align 4
  br label %63

63:                                               ; preds = %40, %39, %26, %15
  call void @llvm.lifetime.end.p0(i64 4, ptr %8) #13
  %64 = load i32, ptr %4, align 4
  ret i32 %64
}