; Function Attrs: nounwind uwtable
define range(i32 -2147483648, 1) i32 @ff_cbs_write_extradata(ptr noundef %0, ptr noundef %1, ptr noundef %2) local_unnamed_addr #3 {
  %4 = tail call i32 @ff_cbs_write_fragment_data(ptr noundef %0, ptr noundef %2)
  %5 = icmp slt i32 %4, 0
  br i1 %5, label %19, label %6

6:                                                ; preds = %3
  %7 = getelementptr inbounds nuw i8, ptr %1, i64 16
  tail call void @av_freep(ptr noundef nonnull %7) #10
  %8 = getelementptr inbounds nuw i8, ptr %1, i64 24
  store i32 0, ptr %8, align 8, !tbaa !48
  %9 = getelementptr inbounds nuw i8, ptr %2, i64 8
  %10 = load i64, ptr %9, align 8, !tbaa !51
  %.not = icmp eq i64 %10, 0
  br i1 %.not, label %19, label %11

11:                                               ; preds = %6
  %12 = add i64 %10, 64
  %13 = tail call noalias ptr @av_malloc(i64 noundef %12) #10
  store ptr %13, ptr %7, align 8, !tbaa !43
  %.not20 = icmp eq ptr %13, null
  br i1 %.not20, label %19, label %14

14:                                               ; preds = %11
  %15 = load ptr, ptr %2, align 8, !tbaa !50
  %16 = load i64, ptr %9, align 8, !tbaa !51
  tail call void @llvm.memcpy.p0.p0.i64(ptr nonnull align 1 %13, ptr align 1 %15, i64 %16, i1 false)
  %17 = getelementptr inbounds nuw i8, ptr %13, i64 %16
  tail call void @llvm.memset.p0.i64(ptr noundef nonnull align 1 dereferenceable(64) %17, i8 0, i64 64, i1 false)
  %18 = trunc i64 %16 to i32
  store i32 %18, ptr %8, align 8, !tbaa !48
  br label %19

19:                                               ; preds = %11, %6, %3, %14
  %.0 = phi i32 [ 0, %14 ], [ %4, %3 ], [ 0, %6 ], [ -12, %11 ]
  ret i32 %.0
}